; ModuleID = 'source-C-CXX/15/72.c'
source_filename = "source-C-CXX/15/72.c"
target datalayout = "e-m:e-p270:32:32-p271:32:32-p272:64:64-i64:64-f80:128-n8:16:32:64-S128"
target triple = "x86_64-pc-linux-gnu"

%struct._IO_FILE = type { i32, i8*, i8*, i8*, i8*, i8*, i8*, i8*, i8*, i8*, i8*, i8*, %struct._IO_marker*, %struct._IO_FILE*, i32, i32, i64, i16, i8, [1 x i8], i8*, i64, %struct._IO_codecvt*, %struct._IO_wide_data*, %struct._IO_FILE*, i8*, i64, i32, [20 x i8] }
%struct._IO_marker = type opaque
%struct._IO_codecvt = type opaque
%struct._IO_wide_data = type opaque

@.str = private unnamed_addr constant [3 x i8] c"%d\00", align 1
@stdin = external local_unnamed_addr global %struct._IO_FILE*, align 8

; Function Attrs: nofree nounwind sspstrong uwtable
define dso_local i32 @main() local_unnamed_addr #0 {
  %1 = alloca i32, align 4
  %2 = alloca [5 x i32], align 16
  %3 = bitcast i32* %1 to i8*
  call void @llvm.lifetime.start.p0i8(i64 4, i8* nonnull %3) #5
  %4 = bitcast [5 x i32]* %2 to i8*
  call void @llvm.lifetime.start.p0i8(i64 20, i8* nonnull %4) #5
  call void @llvm.memset.p0i8.i64(i8* noundef nonnull align 16 dereferenceable(20) %4, i8 0, i64 20, i1 false)
  %5 = call i32 (i8*, ...) @__isoc99_scanf(i8* getelementptr inbounds ([3 x i8], [3 x i8]* @.str, i64 0, i64 0), i32* nonnull %1)
  %6 = load i32, i32* %1, align 4
  %7 = icmp eq i32 %6, 0
  br i1 %7, label %39, label %8

8:                                                ; preds = %0
  %9 = add i32 %6, 9
  %10 = icmp ult i32 %9, 19
  br i1 %10, label %19, label %46

11:                                               ; preds = %52, %49, %46
  %12 = phi i32 [ 2, %46 ], [ 3, %49 ], [ %55, %52 ]
  %13 = add nsw i32 %12, -2
  %14 = insertelement <4 x i32> poison, i32 %13, i32 0
  %15 = shufflevector <4 x i32> %14, <4 x i32> poison, <4 x i32> zeroinitializer
  %16 = icmp ult <4 x i32> %15, <i32 0, i32 1, i32 2, i32 3>
  %17 = select <4 x i1> %16, <4 x i32> <i32 1, i32 1, i32 1, i32 1>, <4 x i32> <i32 10, i32 10, i32 10, i32 10>
  %18 = call i32 @llvm.vector.reduce.mul.v4i32(<4 x i32> %17)
  br label %19

19:                                               ; preds = %11, %8
  %20 = phi i32 [ 1, %8 ], [ %12, %11 ]
  %21 = phi i32 [ 1, %8 ], [ %18, %11 ]
  %22 = zext i32 %20 to i64
  %23 = sdiv i32 %6, %21
  %24 = getelementptr inbounds [5 x i32], [5 x i32]* %2, i64 0, i64 %22
  store i32 %23, i32* %24, align 4, !tbaa !5
  %25 = srem i32 %6, %21
  %26 = sdiv i32 %21, 10
  %27 = icmp ugt i32 %20, 1
  br i1 %27, label %56, label %28, !llvm.loop !9

28:                                               ; preds = %77, %70, %63, %56, %19
  %29 = phi i32 [ %25, %19 ], [ %60, %56 ], [ %67, %63 ], [ %74, %70 ], [ %81, %77 ]
  store i32 %29, i32* %1, align 4, !tbaa !5
  %30 = add nuw nsw i32 %20, 1
  %31 = zext i32 %30 to i64
  br label %32

32:                                               ; preds = %28, %32
  %33 = phi i64 [ 1, %28 ], [ %37, %32 ]
  %34 = getelementptr inbounds [5 x i32], [5 x i32]* %2, i64 0, i64 %33
  %35 = load i32, i32* %34, align 4, !tbaa !5
  %36 = call i32 (i8*, ...) @printf(i8* nonnull dereferenceable(1) getelementptr inbounds ([3 x i8], [3 x i8]* @.str, i64 0, i64 0), i32 %35)
  %37 = add nuw nsw i64 %33, 1
  %38 = icmp eq i64 %37, %31
  br i1 %38, label %39, label %32, !llvm.loop !11

39:                                               ; preds = %32, %0
  %40 = load %struct._IO_FILE*, %struct._IO_FILE** @stdin, align 8, !tbaa !12
  %41 = call i32 @getc(%struct._IO_FILE* %40) #5
  %42 = load %struct._IO_FILE*, %struct._IO_FILE** @stdin, align 8, !tbaa !12
  %43 = call i32 @getc(%struct._IO_FILE* %42) #5
  %44 = load %struct._IO_FILE*, %struct._IO_FILE** @stdin, align 8, !tbaa !12
  %45 = call i32 @getc(%struct._IO_FILE* %44) #5
  call void @llvm.lifetime.end.p0i8(i64 20, i8* nonnull %4) #5
  call void @llvm.lifetime.end.p0i8(i64 4, i8* nonnull %3) #5
  ret i32 0

46:                                               ; preds = %8
  %47 = add i32 %6, 99
  %48 = icmp ult i32 %47, 199
  br i1 %48, label %11, label %49

49:                                               ; preds = %46
  %50 = add i32 %6, 999
  %51 = icmp ult i32 %50, 1999
  br i1 %51, label %11, label %52

52:                                               ; preds = %49
  %53 = add i32 %6, 9999
  %54 = icmp ult i32 %53, 19999
  %55 = select i1 %54, i32 4, i32 5
  br label %11

56:                                               ; preds = %19
  %57 = add nsw i64 %22, -1
  %58 = sdiv i32 %25, %26
  %59 = getelementptr inbounds [5 x i32], [5 x i32]* %2, i64 0, i64 %57
  store i32 %58, i32* %59, align 4, !tbaa !5
  %60 = srem i32 %25, %26
  %61 = sdiv i32 %21, 100
  %62 = icmp eq i32 %20, 2
  br i1 %62, label %28, label %63, !llvm.loop !9

63:                                               ; preds = %56
  %64 = add nsw i64 %22, -2
  %65 = sdiv i32 %60, %61
  %66 = getelementptr inbounds [5 x i32], [5 x i32]* %2, i64 0, i64 %64
  store i32 %65, i32* %66, align 4, !tbaa !5
  %67 = srem i32 %60, %61
  %68 = sdiv i32 %21, 1000
  %69 = icmp ugt i32 %20, 3
  br i1 %69, label %70, label %28, !llvm.loop !9

70:                                               ; preds = %63
  %71 = add nsw i64 %22, -3
  %72 = sdiv i32 %67, %68
  %73 = getelementptr inbounds [5 x i32], [5 x i32]* %2, i64 0, i64 %71
  store i32 %72, i32* %73, align 4, !tbaa !5
  %74 = srem i32 %67, %68
  %75 = sdiv i32 %21, 10000
  %76 = icmp eq i32 %20, 4
  br i1 %76, label %28, label %77, !llvm.loop !9

77:                                               ; preds = %70
  %78 = add nsw i64 %22, -4
  %79 = sdiv i32 %74, %75
  %80 = getelementptr inbounds [5 x i32], [5 x i32]* %2, i64 0, i64 %78
  store i32 %79, i32* %80, align 4, !tbaa !5
  %81 = srem i32 %74, %75
  br label %28
}

; Function Attrs: argmemonly mustprogress nofree nosync nounwind willreturn
declare void @llvm.lifetime.start.p0i8(i64 immarg, i8* nocapture) #1

; Function Attrs: argmemonly mustprogress nofree nounwind willreturn writeonly
declare void @llvm.memset.p0i8.i64(i8* nocapture writeonly, i8, i64, i1 immarg) #2

; Function Attrs: nofree nounwind
declare noundef i32 @__isoc99_scanf(i8* nocapture noundef readonly, ...) local_unnamed_addr #3

; Function Attrs: nofree nounwind
declare noundef i32 @printf(i8* nocapture noundef readonly, ...) local_unnamed_addr #3

; Function Attrs: argmemonly mustprogress nofree nosync nounwind willreturn
declare void @llvm.lifetime.end.p0i8(i64 immarg, i8* nocapture) #1

; Function Attrs: nofree nounwind
declare noundef i32 @getc(%struct._IO_FILE* nocapture noundef) local_unnamed_addr #3

; Function Attrs: nofree nosync nounwind readnone willreturn
declare i32 @llvm.vector.reduce.mul.v4i32(<4 x i32>) #4


!llvm.module.flags = !{!0, !1, !2, !3}
!llvm.ident = !{!4}

!0 = !{i32 1, !"wchar_size", i32 4}
!1 = !{i32 7, !"PIC Level", i32 2}
!2 = !{i32 7, !"PIE Level", i32 2}
!3 = !{i32 7, !"uwtable", i32 1}
!4 = !{!"clang version 13.0.0"}
!5 = !{!6, !6, i64 0}
!6 = !{!"int", !7, i64 0}
!7 = !{!"omnipotent char", !8, i64 0}
!8 = !{!"Simple C/C++ TBAA"}
!9 = distinct !{!9, !10}
!10 = !{!"llvm.loop.mustprogress"}
!11 = distinct !{!11, !10}
!12 = !{!13, !13, i64 0}
!13 = !{!"any pointer", !7, i64 0}
